target datalayout = "e-m:e-p270:32:32-p271:32:32-p272:64:64-i64:64-i128:128-f80:128-n8:16:32:64-S128"
target triple = "x86_64-pc-linux-gnu"

%struct.AVFilterContext = type { ptr, ptr, ptr, ptr, ptr, i32, ptr, ptr, i32, ptr, ptr, i32, i32, ptr, ptr, ptr, ptr, i32, ptr, i32, i32 }
%struct.AVFilterPad = type { ptr, i32, i32, %union.anon, ptr, ptr, ptr }
%union.anon = type { ptr }
%struct.AVFilterLink = type { ptr, ptr, ptr, ptr, i32, i32, i32, i32, %struct.AVRational, i32, i32, i32, %struct.AVChannelLayout, %struct.AVRational, ptr, i32, %struct.AVFilterFormatsConfig, %struct.AVFilterFormatsConfig }
%struct.AVChannelLayout = type { i32, i32, %union.anon.0, ptr }
%union.anon.0 = type { i64 }
%struct.AVFilterFormatsConfig = type { ptr, ptr, ptr, ptr, ptr }
%struct.AVRational = type { i32, i32 }

@.str.9 = private unnamed_addr constant [72 x i8] c"auto-inserting filter '%s' between the filter '%s' and the filter '%s'\0A\00", align 1

; Function Attrs: nounwind uwtable
define i32 @avfilter_insert_filter(ptr noundef %0, ptr noundef %1, i32 noundef %2, i32 noundef %3) #0 {
  %5 = alloca i32, align 4
  %6 = alloca ptr, align 8
  %7 = alloca ptr, align 8
  %8 = alloca i32, align 4
  %9 = alloca i32, align 4
  %10 = alloca i32, align 4
  %11 = alloca i32, align 4
  %12 = alloca i32, align 4
  store ptr %0, ptr %6, align 8, !tbaa !26
  store ptr %1, ptr %7, align 8, !tbaa !4
  store i32 %2, ptr %8, align 4, !tbaa !19
  store i32 %3, ptr %9, align 4, !tbaa !19
  call void @llvm.lifetime.start.p0(i64 4, ptr %10) #11
  call void @llvm.lifetime.start.p0(i64 4, ptr %11) #11
  %13 = load ptr, ptr %6, align 8, !tbaa !26
  %14 = getelementptr inbounds nuw %struct.AVFilterLink, ptr %13, i32 0, i32 3
  %15 = load ptr, ptr %14, align 8, !tbaa !59
  %16 = load ptr, ptr %6, align 8, !tbaa !26
  %17 = getelementptr inbounds nuw %struct.AVFilterLink, ptr %16, i32 0, i32 2
  %18 = load ptr, ptr %17, align 8, !tbaa !57
  %19 = getelementptr inbounds nuw %struct.AVFilterContext, ptr %18, i32 0, i32 3
  %20 = load ptr, ptr %19, align 8, !tbaa !45
  %21 = ptrtoint ptr %15 to i64
  %22 = ptrtoint ptr %20 to i64
  %23 = sub i64 %21, %22
  %24 = sdiv exact i64 %23, 48
  %25 = trunc i64 %24 to i32
  store i32 %25, ptr %11, align 4, !tbaa !19
  %26 = load ptr, ptr %6, align 8, !tbaa !26
  %27 = getelementptr inbounds nuw %struct.AVFilterLink, ptr %26, i32 0, i32 2
  %28 = load ptr, ptr %27, align 8, !tbaa !57
  %29 = load ptr, ptr %7, align 8, !tbaa !4
  %30 = getelementptr inbounds nuw %struct.AVFilterContext, ptr %29, i32 0, i32 2
  %31 = load ptr, ptr %30, align 8, !tbaa !46
  %32 = load ptr, ptr %6, align 8, !tbaa !26
  %33 = getelementptr inbounds nuw %struct.AVFilterLink, ptr %32, i32 0, i32 0
  %34 = load ptr, ptr %33, align 8, !tbaa !49
  %35 = getelementptr inbounds nuw %struct.AVFilterContext, ptr %34, i32 0, i32 2
  %36 = load ptr, ptr %35, align 8, !tbaa !46
  %37 = load ptr, ptr %6, align 8, !tbaa !26
  %38 = getelementptr inbounds nuw %struct.AVFilterLink, ptr %37, i32 0, i32 2
  %39 = load ptr, ptr %38, align 8, !tbaa !57
  %40 = getelementptr inbounds nuw %struct.AVFilterContext, ptr %39, i32 0, i32 2
  %41 = load ptr, ptr %40, align 8, !tbaa !46
  call void (ptr, i32, ptr, ...) @av_log(ptr noundef %28, i32 noundef 40, ptr noundef @.str.9, ptr noundef %31, ptr noundef %36, ptr noundef %41)
  %42 = load ptr, ptr %6, align 8, !tbaa !26
  %43 = getelementptr inbounds nuw %struct.AVFilterLink, ptr %42, i32 0, i32 2
  %44 = load ptr, ptr %43, align 8, !tbaa !57
  %45 = getelementptr inbounds nuw %struct.AVFilterContext, ptr %44, i32 0, i32 4
  %46 = load ptr, ptr %45, align 8, !tbaa !39
  %47 = load i32, ptr %11, align 4, !tbaa !19
  %48 = zext i32 %47 to i64
  %49 = getelementptr inbounds nuw ptr, ptr %46, i64 %48
  store ptr null, ptr %49, align 8, !tbaa !26
  %50 = load ptr, ptr %7, align 8, !tbaa !4
  %51 = load i32, ptr %9, align 4, !tbaa !19
  %52 = load ptr, ptr %6, align 8, !tbaa !26
  %53 = getelementptr inbounds nuw %struct.AVFilterLink, ptr %52, i32 0, i32 2
  %54 = load ptr, ptr %53, align 8, !tbaa !57
  %55 = load i32, ptr %11, align 4, !tbaa !19
  %56 = call i32 @avfilter_link(ptr noundef %50, i32 noundef %51, ptr noundef %54, i32 noundef %55)
  store i32 %56, ptr %10, align 4, !tbaa !19
  %57 = icmp slt i32 %56, 0
  br i1 %57, label %58, label %69

58:                                               ; preds = %4
  %59 = load ptr, ptr %6, align 8, !tbaa !26
  %60 = load ptr, ptr %6, align 8, !tbaa !26
  %61 = getelementptr inbounds nuw %struct.AVFilterLink, ptr %60, i32 0, i32 2
  %62 = load ptr, ptr %61, align 8, !tbaa !57
  %63 = getelementptr inbounds nuw %struct.AVFilterContext, ptr %62, i32 0, i32 4
  %64 = load ptr, ptr %63, align 8, !tbaa !39
  %65 = load i32, ptr %11, align 4, !tbaa !19
  %66 = zext i32 %65 to i64
  %67 = getelementptr inbounds nuw ptr, ptr %64, i64 %66
  store ptr %59, ptr %67, align 8, !tbaa !26
  %68 = load i32, ptr %10, align 4, !tbaa !19
  store i32 %68, ptr %5, align 4
  store i32 1, ptr %12, align 4
  br label %183

69:                                               ; preds = %4
  %70 = load ptr, ptr %7, align 8, !tbaa !4
  %71 = load ptr, ptr %6, align 8, !tbaa !26
  %72 = getelementptr inbounds nuw %struct.AVFilterLink, ptr %71, i32 0, i32 2
  store ptr %70, ptr %72, align 8, !tbaa !57
  %73 = load ptr, ptr %7, align 8, !tbaa !4
  %74 = getelementptr inbounds nuw %struct.AVFilterContext, ptr %73, i32 0, i32 3
  %75 = load ptr, ptr %74, align 8, !tbaa !45
  %76 = load i32, ptr %8, align 4, !tbaa !19
  %77 = zext i32 %76 to i64
  %78 = getelementptr inbounds nuw %struct.AVFilterPad, ptr %75, i64 %77
  %79 = load ptr, ptr %6, align 8, !tbaa !26
  %80 = getelementptr inbounds nuw %struct.AVFilterLink, ptr %79, i32 0, i32 3
  store ptr %78, ptr %80, align 8, !tbaa !59
  %81 = load ptr, ptr %6, align 8, !tbaa !26
  %82 = load ptr, ptr %7, align 8, !tbaa !4
  %83 = getelementptr inbounds nuw %struct.AVFilterContext, ptr %82, i32 0, i32 4
  %84 = load ptr, ptr %83, align 8, !tbaa !39
  %85 = load i32, ptr %8, align 4, !tbaa !19
  %86 = zext i32 %85 to i64
  %87 = getelementptr inbounds nuw ptr, ptr %84, i64 %86
  store ptr %81, ptr %87, align 8, !tbaa !26
  %88 = load ptr, ptr %6, align 8, !tbaa !26
  %89 = getelementptr inbounds nuw %struct.AVFilterLink, ptr %88, i32 0, i32 17
  %90 = getelementptr inbounds nuw %struct.AVFilterFormatsConfig, ptr %89, i32 0, i32 0
  %91 = load ptr, ptr %90, align 8, !tbaa !84
  %92 = icmp ne ptr %91, null
  br i1 %92, label %93, label %106

93:                                               ; preds = %69
  %94 = load ptr, ptr %6, align 8, !tbaa !26
  %95 = getelementptr inbounds nuw %struct.AVFilterLink, ptr %94, i32 0, i32 17
  %96 = getelementptr inbounds nuw %struct.AVFilterFormatsConfig, ptr %95, i32 0, i32 0
  %97 = load ptr, ptr %7, align 8, !tbaa !4
  %98 = getelementptr inbounds nuw %struct.AVFilterContext, ptr %97, i32 0, i32 7
  %99 = load ptr, ptr %98, align 8, !tbaa !38
  %100 = load i32, ptr %9, align 4, !tbaa !19
  %101 = zext i32 %100 to i64
  %102 = getelementptr inbounds nuw ptr, ptr %99, i64 %101
  %103 = load ptr, ptr %102, align 8, !tbaa !26
  %104 = getelementptr inbounds nuw %struct.AVFilterLink, ptr %103, i32 0, i32 17
  %105 = getelementptr inbounds nuw %struct.AVFilterFormatsConfig, ptr %104, i32 0, i32 0
  call void @ff_formats_changeref(ptr noundef %96, ptr noundef %105)
  br label %106

106:                                              ; preds = %93, %69
  %107 = load ptr, ptr %6, align 8, !tbaa !26
  %108 = getelementptr inbounds nuw %struct.AVFilterLink, ptr %107, i32 0, i32 17
  %109 = getelementptr inbounds nuw %struct.AVFilterFormatsConfig, ptr %108, i32 0, i32 3
  %110 = load ptr, ptr %109, align 8, !tbaa !85
  %111 = icmp ne ptr %110, null
  br i1 %111, label %112, label %125

112:                                              ; preds = %106
  %113 = load ptr, ptr %6, align 8, !tbaa !26
  %114 = getelementptr inbounds nuw %struct.AVFilterLink, ptr %113, i32 0, i32 17
  %115 = getelementptr inbounds nuw %struct.AVFilterFormatsConfig, ptr %114, i32 0, i32 3
  %116 = load ptr, ptr %7, align 8, !tbaa !4
  %117 = getelementptr inbounds nuw %struct.AVFilterContext, ptr %116, i32 0, i32 7
  %118 = load ptr, ptr %117, align 8, !tbaa !38
  %119 = load i32, ptr %9, align 4, !tbaa !19
  %120 = zext i32 %119 to i64
  %121 = getelementptr inbounds nuw ptr, ptr %118, i64 %120
  %122 = load ptr, ptr %121, align 8, !tbaa !26
  %123 = getelementptr inbounds nuw %struct.AVFilterLink, ptr %122, i32 0, i32 17
  %124 = getelementptr inbounds nuw %struct.AVFilterFormatsConfig, ptr %123, i32 0, i32 3
  call void @ff_formats_changeref(ptr noundef %115, ptr noundef %124)
  br label %125

125:                                              ; preds = %112, %106
  %126 = load ptr, ptr %6, align 8, !tbaa !26
  %127 = getelementptr inbounds nuw %struct.AVFilterLink, ptr %126, i32 0, i32 17
  %128 = getelementptr inbounds nuw %struct.AVFilterFormatsConfig, ptr %127, i32 0, i32 4
  %129 = load ptr, ptr %128, align 8, !tbaa !86
  %130 = icmp ne ptr %129, null
  br i1 %130, label %131, label %144

131:                                              ; preds = %125
  %132 = load ptr, ptr %6, align 8, !tbaa !26
  %133 = getelementptr inbounds nuw %struct.AVFilterLink, ptr %132, i32 0, i32 17
  %134 = getelementptr inbounds nuw %struct.AVFilterFormatsConfig, ptr %133, i32 0, i32 4
  %135 = load ptr, ptr %7, align 8, !tbaa !4
  %136 = getelementptr inbounds nuw %struct.AVFilterContext, ptr %135, i32 0, i32 7
  %137 = load ptr, ptr %136, align 8, !tbaa !38
  %138 = load i32, ptr %9, align 4, !tbaa !19
  %139 = zext i32 %138 to i64
  %140 = getelementptr inbounds nuw ptr, ptr %137, i64 %139
  %141 = load ptr, ptr %140, align 8, !tbaa !26
  %142 = getelementptr inbounds nuw %struct.AVFilterLink, ptr %141, i32 0, i32 17
  %143 = getelementptr inbounds nuw %struct.AVFilterFormatsConfig, ptr %142, i32 0, i32 4
  call void @ff_formats_changeref(ptr noundef %134, ptr noundef %143)
  br label %144

144:                                              ; preds = %131, %125
  %145 = load ptr, ptr %6, align 8, !tbaa !26
  %146 = getelementptr inbounds nuw %struct.AVFilterLink, ptr %145, i32 0, i32 17
  %147 = getelementptr inbounds nuw %struct.AVFilterFormatsConfig, ptr %146, i32 0, i32 1
  %148 = load ptr, ptr %147, align 8, !tbaa !87
  %149 = icmp ne ptr %148, null
  br i1 %149, label %150, label %163

150:                                              ; preds = %144
  %151 = load ptr, ptr %6, align 8, !tbaa !26
  %152 = getelementptr inbounds nuw %struct.AVFilterLink, ptr %151, i32 0, i32 17
  %153 = getelementptr inbounds nuw %struct.AVFilterFormatsConfig, ptr %152, i32 0, i32 1
  %154 = load ptr, ptr %7, align 8, !tbaa !4
  %155 = getelementptr inbounds nuw %struct.AVFilterContext, ptr %154, i32 0, i32 7
  %156 = load ptr, ptr %155, align 8, !tbaa !38
  %157 = load i32, ptr %9, align 4, !tbaa !19
  %158 = zext i32 %157 to i64
  %159 = getelementptr inbounds nuw ptr, ptr %156, i64 %158
  %160 = load ptr, ptr %159, align 8, !tbaa !26
  %161 = getelementptr inbounds nuw %struct.AVFilterLink, ptr %160, i32 0, i32 17
  %162 = getelementptr inbounds nuw %struct.AVFilterFormatsConfig, ptr %161, i32 0, i32 1
  call void @ff_formats_changeref(ptr noundef %153, ptr noundef %162)
  br label %163

163:                                              ; preds = %150, %144
  %164 = load ptr, ptr %6, align 8, !tbaa !26
  %165 = getelementptr inbounds nuw %struct.AVFilterLink, ptr %164, i32 0, i32 17
  %166 = getelementptr inbounds nuw %struct.AVFilterFormatsConfig, ptr %165, i32 0, i32 2
  %167 = load ptr, ptr %166, align 8, !tbaa !88
  %168 = icmp ne ptr %167, null
  br i1 %168, label %169, label %182

169:                                              ; preds = %163
  %170 = load ptr, ptr %6, align 8, !tbaa !26
  %171 = getelementptr inbounds nuw %struct.AVFilterLink, ptr %170, i32 0, i32 17
  %172 = getelementptr inbounds nuw %struct.AVFilterFormatsConfig, ptr %171, i32 0, i32 2
  %173 = load ptr, ptr %7, align 8, !tbaa !4
  %174 = getelementptr inbounds nuw %struct.AVFilterContext, ptr %173, i32 0, i32 7
  %175 = load ptr, ptr %174, align 8, !tbaa !38
  %176 = load i32, ptr %9, align 4, !tbaa !19
  %177 = zext i32 %176 to i64
  %178 = getelementptr inbounds nuw ptr, ptr %175, i64 %177
  %179 = load ptr, ptr %178, align 8, !tbaa !26
  %180 = getelementptr inbounds nuw %struct.AVFilterLink, ptr %179, i32 0, i32 17
  %181 = getelementptr inbounds nuw %struct.AVFilterFormatsConfig, ptr %180, i32 0, i32 2
  call void @ff_channel_layouts_changeref(ptr noundef %172, ptr noundef %181)
  br label %182

182:                                              ; preds = %169, %163
  store i32 0, ptr %5, align 4
  store i32 1, ptr %12, align 4
  br label %183

183:                                              ; preds = %182, %58
  call void @llvm.lifetime.end.p0(i64 4, ptr %11) #11
  call void @llvm.lifetime.end.p0(i64 4, ptr %10) #11
  %184 = load i32, ptr %5, align 4
  ret i32 %184
}