; Function Attrs: nounwind uwtable
define range(i32 -22, 1) i32 @avfilter_insert_filter(ptr noundef %0, ptr noundef %1, i32 noundef %2, i32 noundef %3) local_unnamed_addr #0 {
  %5 = getelementptr inbounds nuw i8, ptr %0, i64 24
  %6 = load ptr, ptr %5, align 8, !tbaa !49
  %7 = getelementptr inbounds nuw i8, ptr %0, i64 16
  %8 = load ptr, ptr %7, align 8, !tbaa !47
  %9 = getelementptr inbounds nuw i8, ptr %8, i64 24
  %10 = load ptr, ptr %9, align 8, !tbaa !36
  %11 = ptrtoint ptr %6 to i64
  %12 = ptrtoint ptr %10 to i64
  %13 = sub i64 %11, %12
  %14 = sdiv exact i64 %13, 48
  %15 = trunc i64 %14 to i32
  %16 = getelementptr inbounds nuw i8, ptr %1, i64 16
  %17 = load ptr, ptr %16, align 8, !tbaa !37
  %18 = load ptr, ptr %0, align 8, !tbaa !38
  %19 = getelementptr inbounds nuw i8, ptr %18, i64 16
  %20 = load ptr, ptr %19, align 8, !tbaa !37
  %21 = getelementptr inbounds nuw i8, ptr %8, i64 16
  %22 = load ptr, ptr %21, align 8, !tbaa !37
  tail call void (ptr, i32, ptr, ...) @av_log(ptr noundef %8, i32 noundef 40, ptr noundef nonnull @.str.9, ptr noundef %17, ptr noundef %20, ptr noundef %22) #15
  %23 = load ptr, ptr %7, align 8, !tbaa !47
  %24 = getelementptr inbounds nuw i8, ptr %23, i64 32
  %25 = load ptr, ptr %24, align 8, !tbaa !30
  %26 = and i64 %14, 4294967295
  %27 = getelementptr inbounds nuw ptr, ptr %25, i64 %26
  store ptr null, ptr %27, align 8, !tbaa !17
  %28 = tail call i32 @avfilter_link(ptr noundef %1, i32 noundef %3, ptr noundef %23, i32 noundef %15)
  %29 = icmp slt i32 %28, 0
  br i1 %29, label %30, label %35

30:                                               ; preds = %4
  %31 = load ptr, ptr %7, align 8, !tbaa !47
  %32 = getelementptr inbounds nuw i8, ptr %31, i64 32
  %33 = load ptr, ptr %32, align 8, !tbaa !30
  %34 = getelementptr inbounds nuw ptr, ptr %33, i64 %26
  store ptr %0, ptr %34, align 8, !tbaa !17
  br label %92

35:                                               ; preds = %4
  store ptr %1, ptr %7, align 8, !tbaa !47
  %36 = getelementptr inbounds nuw i8, ptr %1, i64 24
  %37 = load ptr, ptr %36, align 8, !tbaa !36
  %38 = zext i32 %2 to i64
  %39 = getelementptr inbounds nuw %struct.AVFilterPad, ptr %37, i64 %38
  store ptr %39, ptr %5, align 8, !tbaa !49
  %40 = getelementptr inbounds nuw i8, ptr %1, i64 32
  %41 = load ptr, ptr %40, align 8, !tbaa !30
  %42 = getelementptr inbounds nuw ptr, ptr %41, i64 %38
  store ptr %0, ptr %42, align 8, !tbaa !17
  %43 = getelementptr inbounds nuw i8, ptr %0, i64 160
  %44 = load ptr, ptr %43, align 8, !tbaa !69
  %.not = icmp eq ptr %44, null
  br i1 %.not, label %52, label %45

45:                                               ; preds = %35
  %46 = getelementptr inbounds nuw i8, ptr %1, i64 56
  %47 = load ptr, ptr %46, align 8, !tbaa !29
  %48 = zext i32 %3 to i64
  %49 = getelementptr inbounds nuw ptr, ptr %47, i64 %48
  %50 = load ptr, ptr %49, align 8, !tbaa !17
  %51 = getelementptr inbounds nuw i8, ptr %50, i64 160
  tail call void @ff_formats_changeref(ptr noundef nonnull %43, ptr noundef nonnull %51) #15
  br label %52

52:                                               ; preds = %45, %35
  %53 = getelementptr inbounds nuw i8, ptr %0, i64 184
  %54 = load ptr, ptr %53, align 8, !tbaa !70
  %.not45 = icmp eq ptr %54, null
  br i1 %.not45, label %62, label %55

55:                                               ; preds = %52
  %56 = getelementptr inbounds nuw i8, ptr %1, i64 56
  %57 = load ptr, ptr %56, align 8, !tbaa !29
  %58 = zext i32 %3 to i64
  %59 = getelementptr inbounds nuw ptr, ptr %57, i64 %58
  %60 = load ptr, ptr %59, align 8, !tbaa !17
  %61 = getelementptr inbounds nuw i8, ptr %60, i64 184
  tail call void @ff_formats_changeref(ptr noundef nonnull %53, ptr noundef nonnull %61) #15
  br label %62

62:                                               ; preds = %55, %52
  %63 = getelementptr inbounds nuw i8, ptr %0, i64 192
  %64 = load ptr, ptr %63, align 8, !tbaa !71
  %.not46 = icmp eq ptr %64, null
  br i1 %.not46, label %72, label %65

65:                                               ; preds = %62
  %66 = getelementptr inbounds nuw i8, ptr %1, i64 56
  %67 = load ptr, ptr %66, align 8, !tbaa !29
  %68 = zext i32 %3 to i64
  %69 = getelementptr inbounds nuw ptr, ptr %67, i64 %68
  %70 = load ptr, ptr %69, align 8, !tbaa !17
  %71 = getelementptr inbounds nuw i8, ptr %70, i64 192
  tail call void @ff_formats_changeref(ptr noundef nonnull %63, ptr noundef nonnull %71) #15
  br label %72

72:                                               ; preds = %65, %62
  %73 = getelementptr inbounds nuw i8, ptr %0, i64 168
  %74 = load ptr, ptr %73, align 8, !tbaa !72
  %.not47 = icmp eq ptr %74, null
  br i1 %.not47, label %82, label %75

75:                                               ; preds = %72
  %76 = getelementptr inbounds nuw i8, ptr %1, i64 56
  %77 = load ptr, ptr %76, align 8, !tbaa !29
  %78 = zext i32 %3 to i64
  %79 = getelementptr inbounds nuw ptr, ptr %77, i64 %78
  %80 = load ptr, ptr %79, align 8, !tbaa !17
  %81 = getelementptr inbounds nuw i8, ptr %80, i64 168
  tail call void @ff_formats_changeref(ptr noundef nonnull %73, ptr noundef nonnull %81) #15
  br label %82

82:                                               ; preds = %75, %72
  %83 = getelementptr inbounds nuw i8, ptr %0, i64 176
  %84 = load ptr, ptr %83, align 8, !tbaa !73
  %.not48 = icmp eq ptr %84, null
  br i1 %.not48, label %92, label %85

85:                                               ; preds = %82
  %86 = getelementptr inbounds nuw i8, ptr %1, i64 56
  %87 = load ptr, ptr %86, align 8, !tbaa !29
  %88 = zext i32 %3 to i64
  %89 = getelementptr inbounds nuw ptr, ptr %87, i64 %88
  %90 = load ptr, ptr %89, align 8, !tbaa !17
  %91 = getelementptr inbounds nuw i8, ptr %90, i64 176
  tail call void @ff_channel_layouts_changeref(ptr noundef nonnull %83, ptr noundef nonnull %91) #15
  br label %92

92:                                               ; preds = %82, %85, %30
  ret i32 %28
}